target datalayout = "e-m:e-p270:32:32-p271:32:32-p272:64:64-i64:64-i128:128-f80:128-n8:16:32:64-S128"
target triple = "x86_64-pc-linux-gnu"

@.str.1 = private unnamed_addr constant [8 x i8] c"proto.c\00", align 1
@.str.13 = private unnamed_addr constant [30 x i8] c"expected new tuple but got %d\00", align 1
@__func__.logicalrep_read_insert = private unnamed_addr constant [23 x i8] c"logicalrep_read_insert\00", align 1

; Function Attrs: nounwind uwtable
define dso_local i32 @logicalrep_read_insert(ptr noundef %0, ptr noundef %1) #0 {
  %3 = alloca ptr, align 8
  %4 = alloca ptr, align 8
  %5 = alloca i8, align 1
  %6 = alloca i32, align 4
  store ptr %0, ptr %3, align 8
  store ptr %1, ptr %4, align 8
  call void @llvm.lifetime.start.p0(i64 1, ptr %5) #9
  call void @llvm.lifetime.start.p0(i64 4, ptr %6) #9
  %7 = load ptr, ptr %3, align 8
  %8 = call i32 @pq_getmsgint(ptr noundef %7, i32 noundef 4)
  store i32 %8, ptr %6, align 4
  %9 = load ptr, ptr %3, align 8
  %10 = call i32 @pq_getmsgbyte(ptr noundef %9)
  %11 = trunc i32 %10 to i8
  store i8 %11, ptr %5, align 1
  %12 = load i8, ptr %5, align 1
  %13 = sext i8 %12 to i32
  %14 = icmp ne i32 %13, 78
  br i1 %14, label %15, label %28

15:                                               ; preds = %2
  br label %16

16:                                               ; preds = %15
  br i1 true, label %17, label %19

17:                                               ; preds = %16
  %18 = call zeroext i1 @errstart_cold(i32 noundef 21, ptr noundef null) #8
  br i1 %18, label %21, label %25

19:                                               ; preds = %16
  %20 = call zeroext i1 @errstart(i32 noundef 21, ptr noundef null)
  br i1 %20, label %21, label %25

21:                                               ; preds = %19, %17
  %22 = load i8, ptr %5, align 1
  %23 = sext i8 %22 to i32
  %24 = call i32 (ptr, ...) @errmsg_internal(ptr noundef @.str.13, i32 noundef %23)
  call void @errfinish(ptr noundef @.str.1, i32 noundef 439, ptr noundef @__func__.logicalrep_read_insert)
  br label %25

25:                                               ; preds = %21, %19, %17
  unreachable

26:                                               ; No predecessors!
  br label %27

27:                                               ; preds = %26
  br label %28

28:                                               ; preds = %27, %2
  %29 = load ptr, ptr %3, align 8
  %30 = load ptr, ptr %4, align 8
  call void @logicalrep_read_tuple(ptr noundef %29, ptr noundef %30)
  %31 = load i32, ptr %6, align 4
  call void @llvm.lifetime.end.p0(i64 4, ptr %6) #9
  call void @llvm.lifetime.end.p0(i64 1, ptr %5) #9
  ret i32 %31
}