; Function Attrs: nounwind uwtable
define dso_local i32 @logicalrep_read_insert(ptr noundef %0, ptr noundef captures(none) %1) local_unnamed_addr #0 {
  %3 = tail call i32 @pq_getmsgint(ptr noundef %0, i32 noundef 4) #8
  %4 = tail call i32 @pq_getmsgbyte(ptr noundef %0) #8
  %sext = shl i32 %4, 24
  %.not = icmp eq i32 %sext, 1308622848
  br i1 %.not, label %9, label %5

5:                                                ; preds = %2
  %6 = ashr exact i32 %sext, 24
  %7 = tail call zeroext i1 @errstart_cold(i32 noundef 21, ptr noundef null) #9
  tail call void @llvm.assume(i1 %7)
  %8 = tail call i32 (ptr, ...) @errmsg_internal(ptr noundef nonnull @.str.13, i32 noundef %6) #8
  tail call void @errfinish(ptr noundef nonnull @.str.1, i32 noundef 439, ptr noundef nonnull @__func__.logicalrep_read_insert) #8
  unreachable

9:                                                ; preds = %2
  tail call fastcc void @logicalrep_read_tuple(ptr noundef %0, ptr noundef %1)
  ret i32 %3
}